target datalayout = "e-m:e-p270:32:32-p271:32:32-p272:64:64-i64:64-i128:128-f80:128-n8:16:32:64-S128"
target triple = "x86_64-pc-linux-gnu"

; Function Attrs: nounwind uwtable
define dso_local i32 @Curl_cf_h1_proxy_insert_after(ptr noundef %0, ptr noundef %1) #0 {
  %3 = alloca ptr, align 8
  %4 = alloca ptr, align 8
  %5 = alloca ptr, align 8
  %6 = alloca i32, align 4
  store ptr %0, ptr %3, align 8
  store ptr %1, ptr %4, align 8
  %7 = call i32 @Curl_cf_create(ptr noundef %5, ptr noundef @Curl_cft_h1_proxy, ptr noundef null)
  store i32 %7, ptr %6, align 4
  %8 = load i32, ptr %6, align 4
  %9 = icmp ne i32 %8, 0
  br i1 %9, label %13, label %10

10:                                               ; preds = %2
  %11 = load ptr, ptr %3, align 8
  %12 = load ptr, ptr %5, align 8
  call void @Curl_conn_cf_insert_after(ptr noundef %11, ptr noundef %12)
  br label %13

13:                                               ; preds = %10, %2
  %14 = load i32, ptr %6, align 4
  ret i32 %14
}